; Function Attrs: mustprogress uwtable
define dso_local void @_ZN25cmMakefileTargetGenerator22CreateLinkLineComputerEP17cmOutputConverterRK16cmStateDirectory(ptr dead_on_unwind noalias writable sret(%"class.std::unique_ptr.947") align 8 %0, ptr nocapture noundef nonnull readonly align 8 dereferenceable(1064) %1, ptr noundef %2, ptr noundef nonnull align 8 dereferenceable(40) %3) local_unnamed_addr #3 align 2 personality ptr @__gxx_personality_v0 {
  %5 = alloca %"class.std::__cxx11::basic_string", align 8
  %6 = alloca %"class.std::allocator", align 1
  %7 = getelementptr inbounds i8, ptr %1, i64 16
  %8 = load ptr, ptr %7, align 8
  call void @_ZNSaIcEC1Ev(ptr noundef nonnull align 1 dereferenceable(1) %6) #20
  %9 = invoke noundef ptr @_ZNSt7__cxx1112basic_stringIcSt11char_traitsIcESaIcEE13_M_local_dataEv(ptr noundef nonnull align 8 dereferenceable(32) %5)
          to label %.noexc unwind label %17

.noexc:                                           ; preds = %4
  invoke void @_ZNSt7__cxx1112basic_stringIcSt11char_traitsIcESaIcEE12_Alloc_hiderC1EPcRKS3_(ptr noundef nonnull align 8 dereferenceable(8) %5, ptr noundef %9, ptr noundef nonnull align 1 dereferenceable(1) %6)
          to label %.noexc8 unwind label %17

.noexc8:                                          ; preds = %.noexc
  invoke void @_ZNSt7__cxx1112basic_stringIcSt11char_traitsIcESaIcEE12_M_constructIPKcEEvT_S8_St20forward_iterator_tag(ptr noundef nonnull align 8 dereferenceable(32) %5, ptr noundef nonnull @.str.193, ptr noundef nonnull getelementptr inbounds ([7 x i8], ptr @.str.193, i64 0, i64 6))
          to label %_ZNSt7__cxx1112basic_stringIcSt11char_traitsIcESaIcEEC2IS3_EEPKcRKS3_.exit unwind label %10

10:                                               ; preds = %.noexc8
  %11 = landingpad { ptr, i32 }
          cleanup
  call void @_ZNSaIcED2Ev(ptr noundef nonnull align 1 dereferenceable(1) %5) #20
  br label %.body

_ZNSt7__cxx1112basic_stringIcSt11char_traitsIcESaIcEEC2IS3_EEPKcRKS3_.exit: ; preds = %.noexc8
  %12 = invoke noundef zeroext i1 @_ZNK10cmMakefile4IsOnERKNSt7__cxx1112basic_stringIcSt11char_traitsIcESaIcEEE(ptr noundef nonnull align 8 dereferenceable(3520) %8, ptr noundef nonnull align 8 dereferenceable(32) %5)
          to label %13 unwind label %19

13:                                               ; preds = %_ZNSt7__cxx1112basic_stringIcSt11char_traitsIcESaIcEEC2IS3_EEPKcRKS3_.exit
  call void @_ZNSt7__cxx1112basic_stringIcSt11char_traitsIcESaIcEED1Ev(ptr noundef nonnull align 8 dereferenceable(32) %5) #20
  call void @_ZNSaIcED1Ev(ptr noundef nonnull align 1 dereferenceable(1) %6) #20
  %14 = getelementptr inbounds i8, ptr %1, i64 128
  %15 = load ptr, ptr %14, align 8
  br i1 %12, label %16, label %21

16:                                               ; preds = %13
  call void @_ZNK17cmGlobalGenerator28CreateMSVC60LinkLineComputerEP17cmOutputConverterRK16cmStateDirectory(ptr dead_on_unwind writable sret(%"class.std::unique_ptr.947") align 8 %0, ptr noundef nonnull align 8 dereferenceable(1778) %15, ptr noundef %2, ptr noundef nonnull align 8 dereferenceable(40) %3)
  br label %25

17:                                               ; preds = %.noexc, %4
  %18 = landingpad { ptr, i32 }
          cleanup
  br label %.body

19:                                               ; preds = %_ZNSt7__cxx1112basic_stringIcSt11char_traitsIcESaIcEEC2IS3_EEPKcRKS3_.exit
  %20 = landingpad { ptr, i32 }
          cleanup
  call void @_ZNSt7__cxx1112basic_stringIcSt11char_traitsIcESaIcEED1Ev(ptr noundef nonnull align 8 dereferenceable(32) %5) #20
  br label %.body

.body:                                            ; preds = %17, %10, %19
  %.pn = phi { ptr, i32 } [ %20, %19 ], [ %18, %17 ], [ %11, %10 ]
  call void @_ZNSaIcED1Ev(ptr noundef nonnull align 1 dereferenceable(1) %6) #20
  resume { ptr, i32 } %.pn

21:                                               ; preds = %13
  %22 = load ptr, ptr %15, align 8
  %23 = getelementptr inbounds i8, ptr %22, i64 144
  %24 = load ptr, ptr %23, align 8
  call void %24(ptr dead_on_unwind writable sret(%"class.std::unique_ptr.947") align 8 %0, ptr noundef nonnull align 8 dereferenceable(1778) %15, ptr noundef %2, ptr noundef nonnull align 8 dereferenceable(40) %3)
  br label %25

25:                                               ; preds = %21, %16
  ret void
}